(dp1
S'files'
p2
(dp3
S'_home_travis_virtualenv_python2_7_lib_python2_7_site-packages_Crypto_pct_warnings'
p4
(dp5
S'index'
p6
(dp7
S'html_filename'
p8
S'_home_travis_virtualenv_python2_7_lib_python2_7_site-packages_Crypto_pct_warnings.html'
p9
sS'name'
p10
S'/home/travis/virtualenv/python2.7/lib/python2.7/site-packages/Crypto/pct_warnings'
p11
sS'nums'
p12
ccopy_reg
_reconstructor
p13
(ccoverage.results
Numbers
p14
c__builtin__
object
p15
NtRp16
(dp17
S'n_files'
p18
I1
sS'n_branches'
p19
I0
sS'n_statements'
p20
I9
sS'n_excluded'
p21
I0
sS'n_partial_branches'
p22
I0
sS'n_missing'
p23
I0
sS'n_missing_branches'
p24
I0
sbssS'hash'
p25
S'\xb7p\xd19\x07f\xecF\xe3\xf0\x85\xec\xceGM1'
p26
ssS'_home_travis_virtualenv_python2_7_lib_python2_7_site-packages_nose_pyversion'
p27
(dp28
g6
(dp29
g8
S'_home_travis_virtualenv_python2_7_lib_python2_7_site-packages_nose_pyversion.html'
p30
sg10
S'/home/travis/virtualenv/python2.7/lib/python2.7/site-packages/nose/pyversion'
p31
sg12
g13
(g14
g15
NtRp32
(dp33
g18
I1
sg19
I26
sg20
I92
sg21
I0
sg22
I0
sg23
I82
sg24
I26
sbssg25
S'\xd2\xbd\xd2\xf6\x19<L(L\xf4\x9fi\x12(7\x9e'
p34
ssS'_home_travis_virtualenv_python2_7_lib_python2_7_site-packages_Crypto_Random___init__'
p35
(dp36
g6
(dp37
g8
S'_home_travis_virtualenv_python2_7_lib_python2_7_site-packages_Crypto_Random___init__.html'
p38
sg10
S'/home/travis/virtualenv/python2.7/lib/python2.7/site-packages/Crypto/Random/__init__'
p39
sg12
g13
(g14
g15
NtRp40
(dp41
g18
I1
sg19
I0
sg20
I10
sg21
I0
sg22
I0
sg23
I2
sg24
I0
sbssg25
S"'@l\xee\xe0\xdb;&K\xafZ\xd7\xdc\x93\xf4\x17"
p42
ssS'_home_travis_virtualenv_python2_7_lib_python2_7_site-packages_yaml_serializer'
p43
(dp44
g6
(dp45
g8
S'_home_travis_virtualenv_python2_7_lib_python2_7_site-packages_yaml_serializer.html'
p46
sg10
S'/home/travis/virtualenv/python2.7/lib/python2.7/site-packages/yaml/serializer'
p47
sg12
g13
(g14
g15
NtRp48
(dp49
g18
I1
sg19
I36
sg20
I85
sg21
I0
sg22
I10
sg23
I20
sg24
I18
sbssg25
S'\xab\xc4l\xe9\x1d\xcd\xf9a%.\t\xab\xf8\xf8\x05l'
p50
ssS'_home_travis_virtualenv_python2_7_lib_python2_7_site-packages_Crypto_Util_Counter'
p51
(dp52
g6
(dp53
g8
S'_home_travis_virtualenv_python2_7_lib_python2_7_site-packages_Crypto_Util_Counter.html'
p54
sg10
S'/home/travis/virtualenv/python2.7/lib/python2.7/site-packages/Crypto/Util/Counter'
p55
sg12
g13
(g14
g15
NtRp56
(dp57
g18
I1
sg19
I14
sg20
I28
sg21
I0
sg22
I6
sg23
I6
sg24
I6
sbssg25
S'\xc7\x1ao\xf5\x15\x9d,\xc7\xe1\x07\xab\x1as\x0e~v'
p58
ssS'ppillar'
p59
(dp60
g6
(dp61
g8
S'ppillar.html'
p62
sg10
g59
sg12
g13
(g14
g15
NtRp63
(dp64
g18
I1
sg19
I20
sg20
I105
sg21
I0
sg22
I4
sg23
I17
sg24
I6
sbssg25
S'\xb7\xfb\xa2\xd3\xc2\xadD\x0f\xf5\x06\xa3\xe5\x9fE\x8c\xc3'
p65
ssS'_home_travis_virtualenv_python2_7_lib_python2_7_site-packages_Crypto_Util__number_new'
p66
(dp67
g6
(dp68
g8
S'_home_travis_virtualenv_python2_7_lib_python2_7_site-packages_Crypto_Util__number_new.html'
p69
sg10
S'/home/travis/virtualenv/python2.7/lib/python2.7/site-packages/Crypto/Util/_number_new'
p70
sg12
g13
(g14
g15
NtRp71
(dp72
g18
I1
sg19
I28
sg20
I52
sg21
I0
sg22
I9
sg23
I15
sg24
I13
sbssg25
S'g\x11\xa2\xb6(\xb2Y\x04y[\x1a-\xeb\x89\xcb\x8a'
p73
ssS'_home_travis_virtualenv_python2_7_lib_python2_7_site-packages_nose_core'
p74
(dp75
g6
(dp76
g8
S'_home_travis_virtualenv_python2_7_lib_python2_7_site-packages_nose_core.html'
p77
sg10
S'/home/travis/virtualenv/python2.7/lib/python2.7/site-packages/nose/core'
p78
sg12
g13
(g14
g15
NtRp79
(dp80
g18
I1
sg19
I56
sg20
I162
sg21
I0
sg22
I6
sg23
I142
sg24
I50
sbssg25
S'\x1d\x0f\xf8k%\x9e\xf5\xdd\n/\x00\xfbq\xb50\xcd'
p81
ssS'_home_travis_virtualenv_python2_7_lib_python2_7_site-packages_Crypto_PublicKey_RSA'
p82
(dp83
g6
(dp84
g8
S'_home_travis_virtualenv_python2_7_lib_python2_7_site-packages_Crypto_PublicKey_RSA.html'
p85
sg10
S'/home/travis/virtualenv/python2.7/lib/python2.7/site-packages/Crypto/PublicKey/RSA'
p86
sg12
g13
(g14
g15
NtRp87
(dp88
g18
I1
sg19
I92
sg20
I256
sg21
I0
sg22
I10
sg23
I159
sg24
I82
sbssg25
S'\xd3\xfd\xaey\x045m\xd6m\xfe*P\x97\r1\x9a'
p89
ssS'_home_travis_virtualenv_python2_7_lib_python2_7_site-packages_nose_suite'
p90
(dp91
g6
(dp92
g8
S'_home_travis_virtualenv_python2_7_lib_python2_7_site-packages_nose_suite.html'
p93
sg10
S'/home/travis/virtualenv/python2.7/lib/python2.7/site-packages/nose/suite'
p94
sg12
g13
(g14
g15
NtRp95
(dp96
g18
I1
sg19
I172
sg20
I394
sg21
I0
sg22
I28
sg23
I211
sg24
I84
sbssg25
S'kg\xb2\xff\xbd\x08\xe1\x03\x1cP\xa4\xe0\xb3\x1de\xfb'
p97
ssS'_home_travis_virtualenv_python2_7_lib_python2_7_site-packages_nose_selector'
p98
(dp99
g6
(dp100
g8
S'_home_travis_virtualenv_python2_7_lib_python2_7_site-packages_nose_selector.html'
p101
sg10
S'/home/travis/virtualenv/python2.7/lib/python2.7/site-packages/nose/selector'
p102
sg12
g13
(g14
g15
NtRp103
(dp104
g18
I1
sg19
I58
sg20
I134
sg21
I0
sg22
I15
sg23
I67
sg24
I25
sbssg25
S'F]n\xcd\xcbb\xc4\r_\xd1\x03\x92\xa6\xb1\xde\x18'
p105
ssS'_home_travis_virtualenv_python2_7_lib_python2_7_site-packages_Crypto_Util___init__'
p106
(dp107
g6
(dp108
g8
S'_home_travis_virtualenv_python2_7_lib_python2_7_site-packages_Crypto_Util___init__.html'
p109
sg10
S'/home/travis/virtualenv/python2.7/lib/python2.7/site-packages/Crypto/Util/__init__'
p110
sg12
g13
(g14
g15
NtRp111
(dp112
g18
I1
sg19
I0
sg20
I3
sg21
I0
sg22
I0
sg23
I0
sg24
I0
sbssg25
S'\xe0\xd0 zD\xf6\x965\x08\xe8\xe5\xa4/\xc3v\xb3'
p113
ssS'_home_travis_virtualenv_python2_7_lib_python2_7_site-packages_nose_plugins_logcapture'
p114
(dp115
g6
(dp116
g8
S'_home_travis_virtualenv_python2_7_lib_python2_7_site-packages_nose_plugins_logcapture.html'
p117
sg10
S'/home/travis/virtualenv/python2.7/lib/python2.7/site-packages/nose/plugins/logcapture'
p118
sg12
g13
(g14
g15
NtRp119
(dp120
g18
I1
sg19
I32
sg20
I125
sg21
I0
sg22
I2
sg23
I114
sg24
I28
sbssg25
S'\x1bQ8\xe9C\x9b\xb2m\xc5\x1b*\xf3{\x06tp'
p121
ssS'_home_travis_virtualenv_python2_7_lib_python2_7_site-packages_Crypto_Random_OSRNG_rng_base'
p122
(dp123
g6
(dp124
g8
S'_home_travis_virtualenv_python2_7_lib_python2_7_site-packages_Crypto_Random_OSRNG_rng_base.html'
p125
sg10
S'/home/travis/virtualenv/python2.7/lib/python2.7/site-packages/Crypto/Random/OSRNG/rng_base'
p126
sg12
g13
(g14
g15
NtRp127
(dp128
g18
I1
sg19
I18
sg20
I44
sg21
I0
sg22
I8
sg23
I16
sg24
I10
sbssg25
S'\xe8O\xcb\xb1\xe0\x88\xa5\x0e\xfc\xa8\xd9\xf1\xaf\x9c\x08@'
p129
ssS'_home_travis_virtualenv_python2_7_lib_python2_7_site-packages_Crypto_Util_number'
p130
(dp131
g6
(dp132
g8
S'_home_travis_virtualenv_python2_7_lib_python2_7_site-packages_Crypto_Util_number.html'
p133
sg10
S'/home/travis/virtualenv/python2.7/lib/python2.7/site-packages/Crypto/Util/number'
p134
sg12
g13
(g14
g15
NtRp135
(dp136
g18
I1
sg19
I97
sg20
I203
sg21
I0
sg22
I3
sg23
I121
sg24
I74
sbssg25
S"\xa9=}\x96fh\xe1\xf8B\x85'\x18;\xd4\xf8i"
p137
ssS'_home_travis_virtualenv_python2_7_lib_python2_7_site-packages_Crypto_Cipher___init__'
p138
(dp139
g6
(dp140
g8
S'_home_travis_virtualenv_python2_7_lib_python2_7_site-packages_Crypto_Cipher___init__.html'
p141
sg10
S'/home/travis/virtualenv/python2.7/lib/python2.7/site-packages/Crypto/Cipher/__init__'
p142
sg12
g13
(g14
g15
NtRp143
(dp144
g18
I1
sg19
I0
sg20
I3
sg21
I0
sg22
I0
sg23
I0
sg24
I0
sbssg25
S'EU8\xea\xcb\xa5e~\x1bc\\\xac\xbb2\x97\xe0'
p145
ssS'_home_travis_virtualenv_python2_7_lib_python2_7_site-packages_yaml_resolver'
p146
(dp147
g6
(dp148
g8
S'_home_travis_virtualenv_python2_7_lib_python2_7_site-packages_yaml_resolver.html'
p149
sg10
S'/home/travis/virtualenv/python2.7/lib/python2.7/site-packages/yaml/resolver'
p150
sg12
g13
(g14
g15
NtRp151
(dp152
g18
I1
sg19
I97
sg20
I132
sg21
I0
sg22
I8
sg23
I77
sg24
I79
sbssg25
S'\x8a\xd3\xaf\x1dO)\xf5\x83\n\xab\xa8\x02m\xfcgA'
p153
ssS'_home_travis_virtualenv_python2_7_lib_python2_7_site-packages_nose_loader'
p154
(dp155
g6
(dp156
g8
S'_home_travis_virtualenv_python2_7_lib_python2_7_site-packages_nose_loader.html'
p157
sg10
S'/home/travis/virtualenv/python2.7/lib/python2.7/site-packages/nose/loader'
p158
sg12
g13
(g14
g15
NtRp159
(dp160
g18
I1
sg19
I183
sg20
I351
sg21
I0
sg22
I45
sg23
I215
sg24
I108
sbssg25
S"\xaa'\xa8\x825D\xb5v\xc7\x01\x98)\xf3\xbf\x039"
p161
ssS'_home_travis_virtualenv_python2_7_lib_python2_7_site-packages_yaml_events'
p162
(dp163
g6
(dp164
g8
S'_home_travis_virtualenv_python2_7_lib_python2_7_site-packages_yaml_events.html'
p165
sg10
S'/home/travis/virtualenv/python2.7/lib/python2.7/site-packages/yaml/events'
p166
sg12
g13
(g14
g15
NtRp167
(dp168
g18
I1
sg19
I0
sg20
I61
sg21
I0
sg22
I0
sg23
I6
sg24
I0
sbssg25
S'.Y^\xa4P#\xe9FQ4\xd3\xc4$\x7f\xc0\xa9'
p169
ssS'_home_travis_virtualenv_python2_7_lib_python2_7_site-packages_Crypto_PublicKey__slowmath'
p170
(dp171
g6
(dp172
g8
S'_home_travis_virtualenv_python2_7_lib_python2_7_site-packages_Crypto_PublicKey__slowmath.html'
p173
sg10
S'/home/travis/virtualenv/python2.7/lib/python2.7/site-packages/Crypto/PublicKey/_slowmath'
p174
sg12
g13
(g14
g15
NtRp175
(dp176
g18
I1
sg19
I32
sg20
I113
sg21
I0
sg22
I7
sg23
I59
sg24
I25
sbssg25
S'\x80\xfc3\x0f8\x1c\x11lK@\xc9\xdf\x87\xecS\xc2'
p177
ssS'_home_travis_virtualenv_python2_7_lib_python2_7_site-packages_yaml_emitter'
p178
(dp179
g6
(dp180
g8
S'_home_travis_virtualenv_python2_7_lib_python2_7_site-packages_yaml_emitter.html'
p181
sg10
S'/home/travis/virtualenv/python2.7/lib/python2.7/site-packages/yaml/emitter'
p182
sg12
g13
(g14
g15
NtRp183
(dp184
g18
I1
sg19
I518
sg20
I840
sg21
I0
sg22
I87
sg23
I471
sg24
I369
sbssg25
S'\x1f)t\x0e\xc8\xb5%\xcd\xe5^\xc9\xbey\xd9\x9e0'
p185
ssS'_home_travis_virtualenv_python2_7_lib_python2_7_site-packages_Crypto_Util_py3compat'
p186
(dp187
g6
(dp188
g8
S'_home_travis_virtualenv_python2_7_lib_python2_7_site-packages_Crypto_Util_py3compat.html'
p189
sg10
S'/home/travis/virtualenv/python2.7/lib/python2.7/site-packages/Crypto/Util/py3compat'
p190
sg12
g13
(g14
g15
NtRp191
(dp192
g18
I1
sg19
I12
sg20
I38
sg21
I0
sg22
I3
sg23
I22
sg24
I9
sbssg25
S'\xe419\x95s\xe9?l\xd6J\xb4\xac\xdehE\x1e'
p193
ssS'_home_travis_virtualenv_python2_7_lib_python2_7_site-packages_Crypto_Util_asn1'
p194
(dp195
g6
(dp196
g8
S'_home_travis_virtualenv_python2_7_lib_python2_7_site-packages_Crypto_Util_asn1.html'
p197
sg10
S'/home/travis/virtualenv/python2.7/lib/python2.7/site-packages/Crypto/Util/asn1'
p198
sg12
g13
(g14
g15
NtRp199
(dp200
g18
I1
sg19
I34
sg20
I142
sg21
I0
sg22
I10
sg23
I40
sg24
I16
sbssg25
S'\x86\xd5\xcd\xd5\x1e\x01\x99V[\xd8\x08^\x9a\x98\x01\x1e'
p201
ssS'_home_travis_virtualenv_python2_7_lib_python2_7_site-packages_Crypto_Hash___init__'
p202
(dp203
g6
(dp204
g8
S'_home_travis_virtualenv_python2_7_lib_python2_7_site-packages_Crypto_Hash___init__.html'
p205
sg10
S'/home/travis/virtualenv/python2.7/lib/python2.7/site-packages/Crypto/Hash/__init__'
p206
sg12
g13
(g14
g15
NtRp207
(dp208
g18
I1
sg19
I0
sg20
I3
sg21
I0
sg22
I0
sg23
I0
sg24
I0
sbssg25
S'\x0b\xa3\r\x9f \x91cg\xc5\xd5e\xc2/\x88g\xce'
p209
ssS'_home_travis_virtualenv_python2_7_lib_python2_7_site-packages_Crypto_Signature___init__'
p210
(dp211
g6
(dp212
g8
S'_home_travis_virtualenv_python2_7_lib_python2_7_site-packages_Crypto_Signature___init__.html'
p213
sg10
S'/home/travis/virtualenv/python2.7/lib/python2.7/site-packages/Crypto/Signature/__init__'
p214
sg12
g13
(g14
g15
NtRp215
(dp216
g18
I1
sg19
I0
sg20
I3
sg21
I0
sg22
I0
sg23
I0
sg24
I0
sbssg25
S'\x85\x0cw\xa3\x06\xc5/\xf6\xf0\x07\x03\x8f\xba\x9a<\x85'
p217
ssS'_home_travis_virtualenv_python2_7_lib_python2_7_site-packages_nose_util'
p218
(dp219
g6
(dp220
g8
S'_home_travis_virtualenv_python2_7_lib_python2_7_site-packages_nose_util.html'
p221
sg10
S'/home/travis/virtualenv/python2.7/lib/python2.7/site-packages/nose/util'
p222
sg12
g13
(g14
g15
NtRp223
(dp224
g18
I1
sg19
I161
sg20
I341
sg21
I0
sg22
I19
sg23
I263
sg24
I121
sbssg25
S'\x18\r"\xe1\xee\x1a^\xdf\x18P\x85\xf2\xa2=\x18\x0f'
p225
ssS'_home_travis_virtualenv_python2_7_lib_python2_7_site-packages_Crypto_Signature_PKCS1_PSS'
p226
(dp227
g6
(dp228
g8
S'_home_travis_virtualenv_python2_7_lib_python2_7_site-packages_Crypto_Signature_PKCS1_PSS.html'
p229
sg10
S'/home/travis/virtualenv/python2.7/lib/python2.7/site-packages/Crypto/Signature/PKCS1_PSS'
p230
sg12
g13
(g14
g15
NtRp231
(dp232
g18
I1
sg19
I36
sg20
I100
sg21
I0
sg22
I1
sg23
I76
sg24
I33
sbssg25
S'\x8aJ\xbc\xe0\x88\xbc\xfc\x9ahy\xf9\xac\xe6\x160\xbb'
p233
ssS'test_ppillar'
p234
(dp235
g6
(dp236
g8
S'test_ppillar.html'
p237
sg10
g234
sg12
g13
(g14
g15
NtRp238
(dp239
g18
I1
sg19
I0
sg20
I46
sg21
I0
sg22
I0
sg23
I0
sg24
I0
sbssg25
S'\x00M\x8by\xe6M\\\xa8)\x03\xcc\x86\x17x\x92\x93'
p240
ssS'_home_travis_virtualenv_python2_7_lib_python2_7_site-packages_Crypto___init__'
p241
(dp242
g6
(dp243
g8
S'_home_travis_virtualenv_python2_7_lib_python2_7_site-packages_Crypto___init__.html'
p244
sg10
S'/home/travis/virtualenv/python2.7/lib/python2.7/site-packages/Crypto/__init__'
p245
sg12
g13
(g14
g15
NtRp246
(dp247
g18
I1
sg19
I0
sg20
I5
sg21
I0
sg22
I0
sg23
I0
sg24
I0
sbssg25
S"\x92\xa9' \xc4\xff\xa0Ozi\xd2\x99\xdd\rR\x08"
p248
ssS'_home_travis_virtualenv_python2_7_lib_python2_7_site-packages_Crypto_Random_Fortuna_SHAd256'
p249
(dp250
g6
(dp251
g8
S'_home_travis_virtualenv_python2_7_lib_python2_7_site-packages_Crypto_Random_Fortuna_SHAd256.html'
p252
sg10
S'/home/travis/virtualenv/python2.7/lib/python2.7/site-packages/Crypto/Random/Fortuna/SHAd256'
p253
sg12
g13
(g14
g15
NtRp254
(dp255
g18
I1
sg19
I8
sg20
I38
sg21
I0
sg22
I2
sg23
I8
sg24
I4
sbssg25
S'\xb3\xe1P\xf2\xc0*\x87Qx\xd5p\xa1L\xedU*'
p256
ssS'_home_travis_virtualenv_python2_7_lib_python2_7_site-packages_yaml_representer'
p257
(dp258
g6
(dp259
g8
S'_home_travis_virtualenv_python2_7_lib_python2_7_site-packages_yaml_representer.html'
p260
sg10
S'/home/travis/virtualenv/python2.7/lib/python2.7/site-packages/yaml/representer'
p261
sg12
g13
(g14
g15
NtRp262
(dp263
g18
I1
sg19
I118
sg20
I308
sg21
I0
sg22
I11
sg23
I170
sg24
I91
sbssg25
S'!op\x00L\xaa\x8bG\xfc\xd6\xef\xe9.\xb0\rL'
p264
ssS'_home_travis_virtualenv_python2_7_lib_python2_7_site-packages_Crypto_PublicKey___init__'
p265
(dp266
g6
(dp267
g8
S'_home_travis_virtualenv_python2_7_lib_python2_7_site-packages_Crypto_PublicKey___init__.html'
p268
sg10
S'/home/travis/virtualenv/python2.7/lib/python2.7/site-packages/Crypto/PublicKey/__init__'
p269
sg12
g13
(g14
g15
NtRp270
(dp271
g18
I1
sg19
I0
sg20
I3
sg21
I0
sg22
I0
sg23
I0
sg24
I0
sbssg25
S']k\x98\x93\xd3\x8e\xe6\xd8\x01yf\xd5\n\xf3\x07\x9e'
p272
ssS'_home_travis_virtualenv_python2_7_lib_python2_7_site-packages_yaml_tokens'
p273
(dp274
g6
(dp275
g8
S'_home_travis_virtualenv_python2_7_lib_python2_7_site-packages_yaml_tokens.html'
p276
sg10
S'/home/travis/virtualenv/python2.7/lib/python2.7/site-packages/yaml/tokens'
p277
sg12
g13
(g14
g15
NtRp278
(dp279
g18
I1
sg19
I0
sg20
I76
sg21
I0
sg22
I0
sg23
I17
sg24
I0
sbssg25
S'\xa9jA{\x8f\x98\x0ej\xab\xad:\x88K\xad\xef0'
p280
ssS'_home_travis_virtualenv_python2_7_lib_python2_7_site-packages_Crypto_Random_Fortuna___init__'
p281
(dp282
g6
(dp283
g8
S'_home_travis_virtualenv_python2_7_lib_python2_7_site-packages_Crypto_Random_Fortuna___init__.html'
p284
sg10
S'/home/travis/virtualenv/python2.7/lib/python2.7/site-packages/Crypto/Random/Fortuna/__init__'
p285
sg12
g13
(g14
g15
NtRp286
(dp287
g18
I1
sg19
I0
sg20
I0
sg21
I0
sg22
I0
sg23
I0
sg24
I0
sbssg25
S'\x19g\xdfM\x1a\x019\xaf\x1baIeR\xe5u\xa7'
p288
ssS'_home_travis_virtualenv_python2_7_lib_python2_7_site-packages_Crypto_Cipher_blockalgo'
p289
(dp290
g6
(dp291
g8
S'_home_travis_virtualenv_python2_7_lib_python2_7_site-packages_Crypto_Cipher_blockalgo.html'
p292
sg10
S'/home/travis/virtualenv/python2.7/lib/python2.7/site-packages/Crypto/Cipher/blockalgo'
p293
sg12
g13
(g14
g15
NtRp294
(dp295
g18
I1
sg19
I30
sg20
I69
sg21
I0
sg22
I6
sg23
I39
sg24
I24
sbssg25
S'\ri\xf0\x97\xc5\x06\xa5n\n\xac\xde\xab\xc5\x86@\xc6'
p296
ssS'_home_travis_virtualenv_python2_7_lib_python2_7_site-packages_Crypto_Random_OSRNG___init__'
p297
(dp298
g6
(dp299
g8
S'_home_travis_virtualenv_python2_7_lib_python2_7_site-packages_Crypto_Random_OSRNG___init__.html'
p300
sg10
S'/home/travis/virtualenv/python2.7/lib/python2.7/site-packages/Crypto/Random/OSRNG/__init__'
p301
sg12
g13
(g14
g15
NtRp302
(dp303
g18
I1
sg19
I6
sg20
I10
sg21
I0
sg22
I1
sg23
I5
sg24
I5
sbssg25
S'\xc4\xf1\xa38w\x8c\xe2\x1eXx\xb8\xda\x9c\x16\x05v'
p304
ssS'_home_travis_virtualenv_python2_7_lib_python2_7_site-packages_Crypto_Hash_SHA256'
p305
(dp306
g6
(dp307
g8
S'_home_travis_virtualenv_python2_7_lib_python2_7_site-packages_Crypto_Hash_SHA256.html'
p308
sg10
S'/home/travis/virtualenv/python2.7/lib/python2.7/site-packages/Crypto/Hash/SHA256'
p309
sg12
g13
(g14
g15
NtRp310
(dp311
g18
I1
sg19
I0
sg20
I23
sg21
I0
sg22
I0
sg23
I3
sg24
I0
sbssg25
S'\x02\xfa:\x03\xdd\x18\xc2H\x99@\xad\x9e\xa6\x99\xac\xab'
p312
ssS'_home_travis_virtualenv_python2_7_lib_python2_7_site-packages_Crypto_PublicKey__RSA'
p313
(dp314
g6
(dp315
g8
S'_home_travis_virtualenv_python2_7_lib_python2_7_site-packages_Crypto_PublicKey__RSA.html'
p316
sg10
S'/home/travis/virtualenv/python2.7/lib/python2.7/site-packages/Crypto/PublicKey/_RSA'
p317
sg12
g13
(g14
g15
NtRp318
(dp319
g18
I1
sg19
I10
sg20
I28
sg21
I0
sg22
I0
sg23
I22
sg24
I10
sbssg25
S'xu*\xf2\x83\xdb\x99\xf5#\x9f\x7f\x7f\x01&M\xed'
p320
ssS'_home_travis_virtualenv_python2_7_lib_python2_7_site-packages_yaml_scanner'
p321
(dp322
g6
(dp323
g8
S'_home_travis_virtualenv_python2_7_lib_python2_7_site-packages_yaml_scanner.html'
p324
sg10
S'/home/travis/virtualenv/python2.7/lib/python2.7/site-packages/yaml/scanner'
p325
sg12
g13
(g14
g15
NtRp326
(dp327
g18
I1
sg19
I380
sg20
I760
sg21
I0
sg22
I43
sg23
I439
sg24
I256
sbssg25
S'\xe7\xd5 \x1e>\xad\xb0-Ta6\xfe\xb4\x9f\xb8Y'
p328
ssS'_home_travis_virtualenv_python2_7_lib_python2_7_site-packages_Crypto_Random_Fortuna_FortunaAccumulator'
p329
(dp330
g6
(dp331
g8
S'_home_travis_virtualenv_python2_7_lib_python2_7_site-packages_Crypto_Random_Fortuna_FortunaAccumulator.html'
p332
sg10
S'/home/travis/virtualenv/python2.7/lib/python2.7/site-packages/Crypto/Random/Fortuna/FortunaAccumulator'
p333
sg12
g13
(g14
g15
NtRp334
(dp335
g18
I1
sg19
I18
sg20
I74
sg21
I0
sg22
I4
sg23
I7
sg24
I6
sbssg25
S'F\x96_iz!\x10\x1c\xec\xb9\x16\xf4\x0c\x8b\xbc-'
p336
ssS'_home_travis_virtualenv_python2_7_lib_python2_7_site-packages_yaml_cyaml'
p337
(dp338
g6
(dp339
g8
S'_home_travis_virtualenv_python2_7_lib_python2_7_site-packages_yaml_cyaml.html'
p340
sg10
S'/home/travis/virtualenv/python2.7/lib/python2.7/site-packages/yaml/cyaml'
p341
sg12
g13
(g14
g15
NtRp342
(dp343
g18
I1
sg19
I0
sg20
I36
sg21
I0
sg22
I0
sg23
I18
sg24
I0
sbssg25
S'OM\xb1\xb0\xaa\xe9+=\xe7\x05\xb9y0;\x8d\xfc'
p344
ssS'_home_travis_virtualenv_python2_7_lib_python2_7_site-packages_nose_plugins_errorclass'
p345
(dp346
g6
(dp347
g8
S'_home_travis_virtualenv_python2_7_lib_python2_7_site-packages_nose_plugins_errorclass.html'
p348
sg10
S'/home/travis/virtualenv/python2.7/lib/python2.7/site-packages/nose/plugins/errorclass'
p349
sg12
g13
(g14
g15
NtRp350
(dp351
g18
I1
sg19
I25
sg20
I65
sg21
I0
sg22
I2
sg23
I59
sg24
I21
sbssg25
S'\x16\x1d\xe2\xb0\x02\xa9U\xb5\xe82\x84T\xbc\x80o\xbc'
p352
ssS'_home_travis_virtualenv_python2_7_lib_python2_7_site-packages_nose_result'
p353
(dp354
g6
(dp355
g8
S'_home_travis_virtualenv_python2_7_lib_python2_7_site-packages_nose_result.html'
p356
sg10
S'/home/travis/virtualenv/python2.7/lib/python2.7/site-packages/nose/result'
p357
sg12
g13
(g14
g15
NtRp358
(dp359
g18
I1
sg19
I56
sg20
I131
sg21
I0
sg22
I4
sg23
I120
sg24
I50
sbssg25
S'\xd2*b\xe2\xc1U\xb3\xf0\x8f\xdf\x97\x96\x969Xo'
p360
ssS'_home_travis_virtualenv_python2_7_lib_python2_7_site-packages_nose_proxy'
p361
(dp362
g6
(dp363
g8
S'_home_travis_virtualenv_python2_7_lib_python2_7_site-packages_nose_proxy.html'
p364
sg10
S'/home/travis/virtualenv/python2.7/lib/python2.7/site-packages/nose/proxy'
p365
sg12
g13
(g14
g15
NtRp366
(dp367
g18
I1
sg19
I33
sg20
I108
sg21
I0
sg22
I6
sg23
I75
sg24
I22
sbssg25
S'\x9a\xf7\x98!\x85pW\x0c;\xb5b\xd6\xed\xac\xe3\xfa'
p368
ssS'_home_travis_virtualenv_python2_7_lib_python2_7_site-packages_Crypto_Cipher_PKCS1_OAEP'
p369
(dp370
g6
(dp371
g8
S'_home_travis_virtualenv_python2_7_lib_python2_7_site-packages_Crypto_Cipher_PKCS1_OAEP.html'
p372
sg10
S'/home/travis/virtualenv/python2.7/lib/python2.7/site-packages/Crypto/Cipher/PKCS1_OAEP'
p373
sg12
g13
(g14
g15
NtRp374
(dp375
g18
I1
sg19
I18
sg20
I75
sg21
I0
sg22
I8
sg23
I10
sg24
I8
sbssg25
S'_]\xc5_#\xb0\xfeh[\xe4\xfb\xea\xe4I\xbb\xe4'
p376
ssS'_home_travis_virtualenv_python2_7_lib_python2_7_site-packages_yaml_reader'
p377
(dp378
g6
(dp379
g8
S'_home_travis_virtualenv_python2_7_lib_python2_7_site-packages_yaml_reader.html'
p380
sg10
S'/home/travis/virtualenv/python2.7/lib/python2.7/site-packages/yaml/reader'
p381
sg12
g13
(g14
g15
NtRp382
(dp383
g18
I1
sg19
I43
sg20
I120
sg21
I0
sg22
I12
sg23
I33
sg24
I16
sbssg25
S'\xc0\xb43\x14\x95K\x10\x96\x90p\xd6{\x9b\x8f\r\xd8'
p384
ssS'_home_travis_virtualenv_python2_7_lib_python2_7_site-packages_yaml_parser'
p385
(dp386
g6
(dp387
g8
S'_home_travis_virtualenv_python2_7_lib_python2_7_site-packages_yaml_parser.html'
p388
sg10
S'/home/travis/virtualenv/python2.7/lib/python2.7/site-packages/yaml/parser'
p389
sg12
g13
(g14
g15
NtRp390
(dp391
g18
I1
sg19
I140
sg20
I352
sg21
I0
sg22
I28
sg23
I184
sg24
I92
sbssg25
S'\xff\xf2\xe8\x048\n\x93G9\xb9n:\\V\xc3]'
p392
ssS'_home_travis_virtualenv_python2_7_lib_python2_7_site-packages_nose_plugins_capture'
p393
(dp394
g6
(dp395
g8
S'_home_travis_virtualenv_python2_7_lib_python2_7_site-packages_nose_plugins_capture.html'
p396
sg10
S'/home/travis/virtualenv/python2.7/lib/python2.7/site-packages/nose/plugins/capture'
p397
sg12
g13
(g14
g15
NtRp398
(dp399
g18
I1
sg19
I23
sg20
I66
sg21
I0
sg22
I1
sg23
I58
sg24
I22
sbssg25
S'\x8f\x9asR6I;J\xd2_IaY.\xee\xb1'
p400
ssS'_home_travis_virtualenv_python2_7_lib_python2_7_site-packages_yaml_error'
p401
(dp402
g6
(dp403
g8
S'_home_travis_virtualenv_python2_7_lib_python2_7_site-packages_yaml_error.html'
p404
sg10
S'/home/travis/virtualenv/python2.7/lib/python2.7/site-packages/yaml/error'
p405
sg12
g13
(g14
g15
NtRp406
(dp407
g18
I1
sg19
I26
sg20
I58
sg21
I0
sg22
I0
sg23
I42
sg24
I26
sbssg25
S'z\xcd\xbd\xc7C\x94|,C\xd4\x15\x1doG^\x96'
p408
ssS'_home_travis_virtualenv_python2_7_lib_python2_7_site-packages_Crypto_Random_OSRNG_posix'
p409
(dp410
g6
(dp411
g8
S'_home_travis_virtualenv_python2_7_lib_python2_7_site-packages_Crypto_Random_OSRNG_posix.html'
p412
sg10
S'/home/travis/virtualenv/python2.7/lib/python2.7/site-packages/Crypto/Random/OSRNG/posix'
p413
sg12
g13
(g14
g15
NtRp414
(dp415
g18
I1
sg19
I12
sg20
I38
sg21
I0
sg22
I4
sg23
I10
sg24
I6
sbssg25
S'\xce\x1fVI\xef\xee\xb6\x9d\xaf\xbcd{\xa3\x8c\x9a\x86'
p416
ssS'_home_travis_virtualenv_python2_7_lib_python2_7_site-packages_Crypto_Random__UserFriendlyRNG'
p417
(dp418
g6
(dp419
g8
S'_home_travis_virtualenv_python2_7_lib_python2_7_site-packages_Crypto_Random__UserFriendlyRNG.html'
p420
sg10
S'/home/travis/virtualenv/python2.7/lib/python2.7/site-packages/Crypto/Random/_UserFriendlyRNG'
p421
sg12
g13
(g14
g15
NtRp422
(dp423
g18
I1
sg19
I22
sg20
I119
sg21
I0
sg22
I7
sg23
I21
sg24
I9
sbssg25
S'\xe5Vmx\xf0\xc6iK%\xe1\xad\xa7[\x16\xd1\x83'
p424
ssS'_home_travis_virtualenv_python2_7_lib_python2_7_site-packages_yaml___init__'
p425
(dp426
g6
(dp427
g8
S'_home_travis_virtualenv_python2_7_lib_python2_7_site-packages_yaml___init__.html'
p428
sg10
S'/home/travis/virtualenv/python2.7/lib/python2.7/site-packages/yaml/__init__'
p429
sg12
g13
(g14
g15
NtRp430
(dp431
g18
I1
sg19
I32
sg20
I138
sg21
I0
sg22
I3
sg23
I77
sg24
I27
sbssg25
S'$H\xf6\x0f5|pV{%\x02nX\x1f[\x8c'
p432
ssS'_home_travis_virtualenv_python2_7_lib_python2_7_site-packages_Crypto_PublicKey_pubkey'
p433
(dp434
g6
(dp435
g8
S'_home_travis_virtualenv_python2_7_lib_python2_7_site-packages_Crypto_PublicKey_pubkey.html'
p436
sg10
S'/home/travis/virtualenv/python2.7/lib/python2.7/site-packages/Crypto/PublicKey/pubkey'
p437
sg12
g13
(g14
g15
NtRp438
(dp439
g18
I1
sg19
I26
sg20
I75
sg21
I0
sg22
I6
sg23
I40
sg24
I20
sbssg25
S'\xeb\xab\xbc\x9d\xe9\xb5JHN\xa8\x9d\xed/\xaa\x95\xa0'
p440
ssS'_home_travis_virtualenv_python2_7_lib_python2_7_site-packages_nose_importer'
p441
(dp442
g6
(dp443
g8
S'_home_travis_virtualenv_python2_7_lib_python2_7_site-packages_nose_importer.html'
p444
sg10
S'/home/travis/virtualenv/python2.7/lib/python2.7/site-packages/nose/importer'
p445
sg12
g13
(g14
g15
NtRp446
(dp447
g18
I1
sg19
I51
sg20
I101
sg21
I0
sg22
I14
sg23
I50
sg24
I30
sbssg25
S' \x94\x07~\xca\x1b\x0e\x15Vwp\x07\xef\xb4S\x1f'
p448
ssS'_home_travis_virtualenv_python2_7_lib_python2_7_site-packages_yaml_constructor'
p449
(dp450
g6
(dp451
g8
S'_home_travis_virtualenv_python2_7_lib_python2_7_site-packages_yaml_constructor.html'
p452
sg10
S'/home/travis/virtualenv/python2.7/lib/python2.7/site-packages/yaml/constructor'
p453
sg12
g13
(g14
g15
NtRp454
(dp455
g18
I1
sg19
I185
sg20
I441
sg21
I0
sg22
I16
sg23
I275
sg24
I153
sbssg25
S'\x13\xb1H\xef\x91\xfd\xff\x85\x14\xf4^g\x1b\xa62\x9a'
p456
ssS'_home_travis_virtualenv_python2_7_lib_python2_7_site-packages_Crypto_Hash_SHA'
p457
(dp458
g6
(dp459
g8
S'_home_travis_virtualenv_python2_7_lib_python2_7_site-packages_Crypto_Hash_SHA.html'
p460
sg10
S'/home/travis/virtualenv/python2.7/lib/python2.7/site-packages/Crypto/Hash/SHA'
p461
sg12
g13
(g14
g15
NtRp462
(dp463
g18
I1
sg19
I0
sg20
I23
sg21
I0
sg22
I0
sg23
I3
sg24
I0
sbssg25
S'\xda\x1e6\xee}\xc6\xcb\x0f\x7f.\xd1\xd9\xbb\xa9n\xcd'
p464
ssS'_home_travis_virtualenv_python2_7_lib_python2_7_site-packages_yaml_composer'
p465
(dp466
g6
(dp467
g8
S'_home_travis_virtualenv_python2_7_lib_python2_7_site-packages_yaml_composer.html'
p468
sg10
S'/home/travis/virtualenv/python2.7/lib/python2.7/site-packages/yaml/composer'
p469
sg12
g13
(g14
g15
NtRp470
(dp471
g18
I1
sg19
I38
sg20
I92
sg21
I0
sg22
I10
sg23
I31
sg24
I24
sbssg25
S"!\xc5'\xd5k\xcf\xc6wB\x97\x81y\x01\xf1Gh"
p472
ssS'_home_travis_virtualenv_python2_7_lib_python2_7_site-packages_nose_case'
p473
(dp474
g6
(dp475
g8
S'_home_travis_virtualenv_python2_7_lib_python2_7_site-packages_nose_case.html'
p476
sg10
S'/home/travis/virtualenv/python2.7/lib/python2.7/site-packages/nose/case'
p477
sg12
g13
(g14
g15
NtRp478
(dp479
g18
I1
sg19
I44
sg20
I204
sg21
I0
sg22
I4
sg23
I170
sg24
I40
sbssg25
S'\\\x13\x9d\x10\xd2\xde\xa2\xc5\x90!\x85\xd5\x17\x9b\xd0\x01'
p480
ssS'_home_travis_virtualenv_python2_7_lib_python2_7_site-packages_Crypto_Cipher_AES'
p481
(dp482
g6
(dp483
g8
S'_home_travis_virtualenv_python2_7_lib_python2_7_site-packages_Crypto_Cipher_AES.html'
p484
sg10
S'/home/travis/virtualenv/python2.7/lib/python2.7/site-packages/Crypto/Cipher/AES'
p485
sg12
g13
(g14
g15
NtRp486
(dp487
g18
I1
sg19
I0
sg20
I18
sg21
I0
sg22
I0
sg23
I0
sg24
I0
sbssg25
S'>\xc5$.\xc4#\x02SyZ@ac\x03\xf2['
p488
ssS'_home_travis_virtualenv_python2_7_lib_python2_7_site-packages_nose_plugins_manager'
p489
(dp490
g6
(dp491
g8
S'_home_travis_virtualenv_python2_7_lib_python2_7_site-packages_nose_plugins_manager.html'
p492
sg10
S'/home/travis/virtualenv/python2.7/lib/python2.7/site-packages/nose/plugins/manager'
p493
sg12
g13
(g14
g15
NtRp494
(dp495
g18
I1
sg19
I91
sg20
I265
sg21
I0
sg22
I5
sg23
I234
sg24
I73
sbssg25
S'\xe7~\xa7\xe1\xf2\xda\xd3\xc8\x93\x1b\xa0\x8cY\x89\x1d\x1c'
p496
ssS'_home_travis_virtualenv_python2_7_lib_python2_7_site-packages_nose_plugins_cover'
p497
(dp498
g6
(dp499
g8
S'_home_travis_virtualenv_python2_7_lib_python2_7_site-packages_nose_plugins_cover.html'
p500
sg10
S'/home/travis/virtualenv/python2.7/lib/python2.7/site-packages/nose/plugins/cover'
p501
sg12
g13
(g14
g15
NtRp502
(dp503
g18
I1
sg19
I62
sg20
I138
sg21
I0
sg22
I1
sg23
I135
sg24
I61
sbssg25
S'\x82s3\x86.\xc8\xf2\x9e\xcdd\x01\xf5\xd1i!+'
p504
ssS'_home_travis_virtualenv_python2_7_lib_python2_7_site-packages_yaml_dumper'
p505
(dp506
g6
(dp507
g8
S'_home_travis_virtualenv_python2_7_lib_python2_7_site-packages_yaml_dumper.html'
p508
sg10
S'/home/travis/virtualenv/python2.7/lib/python2.7/site-packages/yaml/dumper'
p509
sg12
g13
(g14
g15
NtRp510
(dp511
g18
I1
sg19
I0
sg20
I23
sg21
I0
sg22
I0
sg23
I8
sg24
I0
sbssg25
S'\xc8s\xb8(\xaeMZ\xae\x91\x8b\x19\xff\r\xe12<'
p512
ssS'_home_travis_virtualenv_python2_7_lib_python2_7_site-packages_yaml_loader'
p513
(dp514
g6
(dp515
g8
S'_home_travis_virtualenv_python2_7_lib_python2_7_site-packages_yaml_loader.html'
p516
sg10
S'/home/travis/virtualenv/python2.7/lib/python2.7/site-packages/yaml/loader'
p517
sg12
g13
(g14
g15
NtRp518
(dp519
g18
I1
sg19
I0
sg20
I31
sg21
I0
sg22
I0
sg23
I12
sg24
I0
sbssg25
S'J\xe4^\x00\xf1I\x89\x87\x93\xc2.\x94\x9ak\x1c\xd1'
p520
ssS'_home_travis_virtualenv_python2_7_lib_python2_7_site-packages_Crypto_Random_Fortuna_FortunaGenerator'
p521
(dp522
g6
(dp523
g8
S'_home_travis_virtualenv_python2_7_lib_python2_7_site-packages_Crypto_Random_Fortuna_FortunaGenerator.html'
p524
sg10
S'/home/travis/virtualenv/python2.7/lib/python2.7/site-packages/Crypto/Random/Fortuna/FortunaGenerator'
p525
sg12
g13
(g14
g15
NtRp526
(dp527
g18
I1
sg19
I12
sg20
I60
sg21
I0
sg22
I6
sg23
I5
sg24
I6
sbssg25
S'\x1eT>\xac\xb1\x81\xbf\xc6\x99\xc45\xa9\x92^\xe5w'
p528
ssS'test_integration_ppillar'
p529
(dp530
g6
(dp531
g8
S'test_integration_ppillar.html'
p532
sg10
g529
sg12
g13
(g14
g15
NtRp533
(dp534
g18
I1
sg19
I0
sg20
I25
sg21
I0
sg22
I0
sg23
I0
sg24
I0
sbssg25
S'8\x1b\xf2m"\x17FW!\xd1>\x92\x9c6\x83\x88'
p535
ssS'_home_travis_virtualenv_python2_7_lib_python2_7_site-packages_Crypto_Hash_hashalgo'
p536
(dp537
g6
(dp538
g8
S'_home_travis_virtualenv_python2_7_lib_python2_7_site-packages_Crypto_Hash_hashalgo.html'
p539
sg10
S'/home/travis/virtualenv/python2.7/lib/python2.7/site-packages/Crypto/Hash/hashalgo'
p540
sg12
g13
(g14
g15
NtRp541
(dp542
g18
I1
sg19
I4
sg20
I20
sg21
I0
sg22
I1
sg23
I4
sg24
I1
sbssg25
S'z\x89\x0f\xb4vb\x1a\x07<t\xbf^<?r\x17'
p543
ssS'_home_travis_virtualenv_python2_7_lib_python2_7_site-packages_yaml_nodes'
p544
(dp545
g6
(dp546
g8
S'_home_travis_virtualenv_python2_7_lib_python2_7_site-packages_yaml_nodes.html'
p547
sg10
S'/home/travis/virtualenv/python2.7/lib/python2.7/site-packages/yaml/nodes'
p548
sg12
g13
(g14
g15
NtRp549
(dp550
g18
I1
sg19
I0
sg20
I29
sg21
I0
sg22
I0
sg23
I7
sg24
I0
sbssg25
S'z\x0b\xe1\xcc\\"\x85\xa0\xc0\xab\x18\xfd\xc8\x91\x89u'
p551
sssS'version'
p552
S'3.7.1'
p553
sS'settings'
p554
S'\x9fi^\xfc\xdb_B\x8a\xa1&\x0cN\x0f\xa1\xd11'
p555
sS'format'
p556
I1
s.